target datalayout = "e-m:e-p270:32:32-p271:32:32-p272:64:64-i64:64-i128:128-f80:128-n8:16:32:64-S128"
target triple = "x86_64-pc-linux-gnu"

%struct.dt_lib_module_t = type { %struct.dt_action_t, ptr, ptr, ptr, ptr, ptr, ptr, ptr, ptr, ptr, ptr, ptr, ptr, ptr, ptr, ptr, ptr, ptr, ptr, ptr, ptr, ptr, ptr, ptr, ptr, ptr, ptr, ptr, ptr, ptr, ptr, [128 x i8], ptr, ptr, i32, ptr, ptr, ptr, i32 }
%struct.dt_action_t = type { i32, ptr, ptr, ptr, ptr, ptr }
%struct.dt_lib_tagging_t = type { [1024 x i8], ptr, ptr, ptr, ptr, ptr, ptr, ptr, ptr, ptr, ptr, ptr, ptr, ptr, ptr, ptr, ptr, ptr, ptr, ptr, ptr, ptr, i32, i32, i32, i32, i32, ptr, ptr, %struct.anon, i32 }
%struct.anon = type { ptr, ptr, ptr, i32, i32, i32, i32, i32 }
%struct._GtkTreeIter = type { i32, ptr, ptr, ptr }

; Function Attrs: nounwind uwtable
define internal void @_pop_menu_attached_clipboard(ptr noundef %0, ptr noundef %1) #0 {
  %3 = alloca ptr, align 8
  %4 = alloca ptr, align 8
  %5 = alloca ptr, align 8
  %6 = alloca ptr, align 8
  %7 = alloca %struct._GtkTreeIter, align 8
  %8 = alloca ptr, align 8
  %9 = alloca ptr, align 8
  %10 = alloca i32, align 4
  store ptr %0, ptr %3, align 8, !tbaa !108
  store ptr %1, ptr %4, align 8, !tbaa !6
  call void @llvm.lifetime.start.p0(i64 8, ptr %5) #11
  %11 = load ptr, ptr %4, align 8, !tbaa !6
  %12 = getelementptr inbounds nuw %struct.dt_lib_module_t, ptr %11, i32 0, i32 30
  %13 = load ptr, ptr %12, align 8, !tbaa !11
  store ptr %13, ptr %5, align 8, !tbaa !19
  call void @llvm.lifetime.start.p0(i64 8, ptr %6) #11
  call void @llvm.lifetime.start.p0(i64 32, ptr %7) #11
  call void @llvm.lifetime.start.p0(i64 8, ptr %8) #11
  store ptr null, ptr %8, align 8, !tbaa !36
  call void @llvm.lifetime.start.p0(i64 8, ptr %9) #11
  %14 = load ptr, ptr %5, align 8, !tbaa !19
  %15 = getelementptr inbounds nuw %struct.dt_lib_tagging_t, ptr %14, i32 0, i32 3
  %16 = load ptr, ptr %15, align 8, !tbaa !34
  %17 = call ptr @gtk_tree_view_get_selection(ptr noundef %16)
  store ptr %17, ptr %9, align 8, !tbaa !59
  %18 = load ptr, ptr %9, align 8, !tbaa !59
  %19 = call i32 @gtk_tree_selection_get_selected(ptr noundef %18, ptr noundef %8, ptr noundef %7)
  %20 = icmp ne i32 %19, 0
  br i1 %20, label %22, label %21

21:                                               ; preds = %2
  store i32 1, ptr %10, align 4
  br label %28

22:                                               ; preds = %2
  %23 = load ptr, ptr %8, align 8, !tbaa !36
  call void (ptr, ptr, ...) @gtk_tree_model_get(ptr noundef %23, ptr noundef %7, i32 noundef 2, ptr noundef %6, i32 noundef -1)
  %24 = call ptr @gdk_display_get_default()
  %25 = call ptr @gtk_clipboard_get_default(ptr noundef %24)
  %26 = load ptr, ptr %6, align 8, !tbaa !49
  call void @gtk_clipboard_set_text(ptr noundef %25, ptr noundef %26, i32 noundef -1)
  %27 = load ptr, ptr %6, align 8, !tbaa !49
  call void @g_free(ptr noundef %27)
  store i32 0, ptr %10, align 4
  br label %28

28:                                               ; preds = %22, %21
  call void @llvm.lifetime.end.p0(i64 8, ptr %9) #11
  call void @llvm.lifetime.end.p0(i64 8, ptr %8) #11
  call void @llvm.lifetime.end.p0(i64 32, ptr %7) #11
  call void @llvm.lifetime.end.p0(i64 8, ptr %6) #11
  call void @llvm.lifetime.end.p0(i64 8, ptr %5) #11
  %29 = load i32, ptr %10, align 4
  switch i32 %29, label %31 [
    i32 0, label %30
    i32 1, label %30
  ]

30:                                               ; preds = %28, %28
  ret void

31:                                               ; preds = %28
  unreachable
}