; Function Attrs: nounwind uwtable
define internal void @_pop_menu_attached_clipboard(ptr readnone captures(none) %0, ptr noundef readonly captures(none) %1) #1 {
  %3 = alloca ptr, align 8
  %4 = alloca %struct._GtkTreeIter, align 8
  %5 = alloca ptr, align 8
  %6 = getelementptr inbounds nuw i8, ptr %1, i64 280
  %7 = load ptr, ptr %6, align 8, !tbaa !6
  call void @llvm.lifetime.start.p0(i64 8, ptr nonnull %3) #16
  call void @llvm.lifetime.start.p0(i64 32, ptr nonnull %4) #16
  call void @llvm.lifetime.start.p0(i64 8, ptr nonnull %5) #16
  store ptr null, ptr %5, align 8, !tbaa !29
  %8 = getelementptr inbounds nuw i8, ptr %7, i64 1040
  %9 = load ptr, ptr %8, align 8, !tbaa !28
  %10 = tail call ptr @gtk_tree_view_get_selection(ptr noundef %9) #16
  %11 = call i32 @gtk_tree_selection_get_selected(ptr noundef %10, ptr noundef nonnull %5, ptr noundef nonnull %4) #16
  %.not = icmp eq i32 %11, 0
  br i1 %.not, label %18, label %12

12:                                               ; preds = %2
  %13 = load ptr, ptr %5, align 8, !tbaa !29
  call void (ptr, ptr, ...) @gtk_tree_model_get(ptr noundef %13, ptr noundef nonnull %4, i32 noundef 2, ptr noundef nonnull %3, i32 noundef -1) #16
  %14 = call ptr @gdk_display_get_default() #16
  %15 = call ptr @gtk_clipboard_get_default(ptr noundef %14) #16
  %16 = load ptr, ptr %3, align 8, !tbaa !31
  call void @gtk_clipboard_set_text(ptr noundef %15, ptr noundef %16, i32 noundef -1) #16
  %17 = load ptr, ptr %3, align 8, !tbaa !31
  call void @g_free(ptr noundef %17) #16
  br label %18

18:                                               ; preds = %2, %12
  call void @llvm.lifetime.end.p0(i64 8, ptr nonnull %5) #16
  call void @llvm.lifetime.end.p0(i64 32, ptr nonnull %4) #16
  call void @llvm.lifetime.end.p0(i64 8, ptr nonnull %3) #16
  ret void
}